target datalayout = "e-m:e-p270:32:32-p271:32:32-p272:64:64-i64:64-i128:128-f80:128-n8:16:32:64-S128"
target triple = "x86_64-pc-linux-gnu"

%struct.NormalizeContext = type { ptr, [4 x i8], [4 x i8], i32, float, float, [4 x i8], i32, [4 x i32], [4 x i32], i32, i32, i32, i32, [3 x %struct.NormalizeHistory], [3 x %struct.NormalizeHistory], ptr, [3 x [65536 x i16]], ptr, ptr }
%struct.NormalizeHistory = type { ptr, i64 }
%struct.AVChannelLayout = type { i32, i32, %union.anon.1, ptr }
%union.anon.1 = type { i64 }
%struct.AVRational = type { i32, i32 }
%struct.NormalizeLocal = type { i16, float, float }
%struct.AVFrame = type { [8 x ptr], [8 x i32], ptr, i32, i32, i32, i32, i32, %struct.AVRational, i64, i64, %struct.AVRational, i32, ptr, i32, i32, [8 x ptr], ptr, i32, ptr, i32, i32, i32, i32, i32, i32, i32, i64, ptr, i32, ptr, ptr, i64, i64, i64, i64, ptr, %struct.AVChannelLayout, i64 }

; Function Attrs: nounwind uwtable
define internal void @find_min_max_16(ptr noundef %0, ptr noundef %1, ptr noundef %2, ptr noundef %3) #2 {
  %5 = alloca ptr, align 8
  %6 = alloca ptr, align 8
  %7 = alloca ptr, align 8
  %8 = alloca ptr, align 8
  %9 = alloca i32, align 4
  %10 = alloca i32, align 4
  %11 = alloca i32, align 4
  %12 = alloca ptr, align 8
  %13 = alloca i32, align 4
  %14 = alloca i32, align 4
  store ptr %0, ptr %5, align 8, !tbaa !22
  store ptr %1, ptr %6, align 8, !tbaa !26
  store ptr %2, ptr %7, align 8, !tbaa !82
  store ptr %3, ptr %8, align 8, !tbaa !82
  call void @llvm.lifetime.start.p0(i64 4, ptr %9) #6
  store i32 0, ptr %9, align 4, !tbaa !38
  br label %15

15:                                               ; preds = %45, %4
  %16 = load i32, ptr %9, align 4, !tbaa !38
  %17 = icmp slt i32 %16, 3
  br i1 %17, label %19, label %18

18:                                               ; preds = %15
  call void @llvm.lifetime.end.p0(i64 4, ptr %9) #6
  br label %48

19:                                               ; preds = %15
  %20 = load ptr, ptr %6, align 8, !tbaa !26
  %21 = getelementptr inbounds nuw %struct.AVFrame, ptr %20, i32 0, i32 0
  %22 = getelementptr inbounds [8 x ptr], ptr %21, i64 0, i64 0
  %23 = load ptr, ptr %22, align 8, !tbaa !84
  %24 = load ptr, ptr %5, align 8, !tbaa !22
  %25 = getelementptr inbounds nuw %struct.NormalizeContext, ptr %24, i32 0, i32 6
  %26 = load i32, ptr %9, align 4, !tbaa !38
  %27 = sext i32 %26 to i64
  %28 = getelementptr inbounds [4 x i8], ptr %25, i64 0, i64 %27
  %29 = load i8, ptr %28, align 1, !tbaa !60
  %30 = zext i8 %29 to i32
  %31 = mul nsw i32 2, %30
  %32 = sext i32 %31 to i64
  %33 = getelementptr inbounds i8, ptr %23, i64 %32
  %34 = load i16, ptr %33, align 1, !tbaa !60
  %35 = load ptr, ptr %8, align 8, !tbaa !82
  %36 = load i32, ptr %9, align 4, !tbaa !38
  %37 = sext i32 %36 to i64
  %38 = getelementptr inbounds %struct.NormalizeLocal, ptr %35, i64 %37
  %39 = getelementptr inbounds nuw %struct.NormalizeLocal, ptr %38, i32 0, i32 0
  store i16 %34, ptr %39, align 4, !tbaa !71
  %40 = load ptr, ptr %7, align 8, !tbaa !82
  %41 = load i32, ptr %9, align 4, !tbaa !38
  %42 = sext i32 %41 to i64
  %43 = getelementptr inbounds %struct.NormalizeLocal, ptr %40, i64 %42
  %44 = getelementptr inbounds nuw %struct.NormalizeLocal, ptr %43, i32 0, i32 0
  store i16 %34, ptr %44, align 4, !tbaa !71
  br label %45

45:                                               ; preds = %19
  %46 = load i32, ptr %9, align 4, !tbaa !38
  %47 = add nsw i32 %46, 1
  store i32 %47, ptr %9, align 4, !tbaa !38
  br label %15, !llvm.loop !105

48:                                               ; preds = %18
  call void @llvm.lifetime.start.p0(i64 4, ptr %10) #6
  store i32 0, ptr %10, align 4, !tbaa !38
  br label %49

49:                                               ; preds = %190, %48
  %50 = load i32, ptr %10, align 4, !tbaa !38
  %51 = load ptr, ptr %6, align 8, !tbaa !26
  %52 = getelementptr inbounds nuw %struct.AVFrame, ptr %51, i32 0, i32 4
  %53 = load i32, ptr %52, align 4, !tbaa !85
  %54 = icmp slt i32 %50, %53
  br i1 %54, label %56, label %55

55:                                               ; preds = %49
  store i32 5, ptr %11, align 4
  call void @llvm.lifetime.end.p0(i64 4, ptr %10) #6
  br label %193

56:                                               ; preds = %49
  call void @llvm.lifetime.start.p0(i64 8, ptr %12) #6
  %57 = load ptr, ptr %6, align 8, !tbaa !26
  %58 = getelementptr inbounds nuw %struct.AVFrame, ptr %57, i32 0, i32 0
  %59 = getelementptr inbounds [8 x ptr], ptr %58, i64 0, i64 0
  %60 = load ptr, ptr %59, align 8, !tbaa !84
  %61 = load i32, ptr %10, align 4, !tbaa !38
  %62 = load ptr, ptr %6, align 8, !tbaa !26
  %63 = getelementptr inbounds nuw %struct.AVFrame, ptr %62, i32 0, i32 1
  %64 = getelementptr inbounds [8 x i32], ptr %63, i64 0, i64 0
  %65 = load i32, ptr %64, align 8, !tbaa !38
  %66 = mul nsw i32 %61, %65
  %67 = sext i32 %66 to i64
  %68 = getelementptr inbounds i8, ptr %60, i64 %67
  store ptr %68, ptr %12, align 8, !tbaa !102
  call void @llvm.lifetime.start.p0(i64 4, ptr %13) #6
  store i32 0, ptr %13, align 4, !tbaa !38
  br label %69

69:                                               ; preds = %186, %56
  %70 = load i32, ptr %13, align 4, !tbaa !38
  %71 = load ptr, ptr %6, align 8, !tbaa !26
  %72 = getelementptr inbounds nuw %struct.AVFrame, ptr %71, i32 0, i32 3
  %73 = load i32, ptr %72, align 8, !tbaa !90
  %74 = icmp slt i32 %70, %73
  br i1 %74, label %76, label %75

75:                                               ; preds = %69
  store i32 8, ptr %11, align 4
  call void @llvm.lifetime.end.p0(i64 4, ptr %13) #6
  br label %189

76:                                               ; preds = %69
  call void @llvm.lifetime.start.p0(i64 4, ptr %14) #6
  store i32 0, ptr %14, align 4, !tbaa !38
  br label %77

77:                                               ; preds = %176, %76
  %78 = load i32, ptr %14, align 4, !tbaa !38
  %79 = icmp slt i32 %78, 3
  br i1 %79, label %81, label %80

80:                                               ; preds = %77
  store i32 11, ptr %11, align 4
  call void @llvm.lifetime.end.p0(i64 4, ptr %14) #6
  br label %179

81:                                               ; preds = %77
  %82 = load ptr, ptr %7, align 8, !tbaa !82
  %83 = load i32, ptr %14, align 4, !tbaa !38
  %84 = sext i32 %83 to i64
  %85 = getelementptr inbounds %struct.NormalizeLocal, ptr %82, i64 %84
  %86 = getelementptr inbounds nuw %struct.NormalizeLocal, ptr %85, i32 0, i32 0
  %87 = load i16, ptr %86, align 4, !tbaa !71
  %88 = zext i16 %87 to i32
  %89 = load ptr, ptr %12, align 8, !tbaa !102
  %90 = load ptr, ptr %5, align 8, !tbaa !22
  %91 = getelementptr inbounds nuw %struct.NormalizeContext, ptr %90, i32 0, i32 6
  %92 = load i32, ptr %14, align 4, !tbaa !38
  %93 = sext i32 %92 to i64
  %94 = getelementptr inbounds [4 x i8], ptr %91, i64 0, i64 %93
  %95 = load i8, ptr %94, align 1, !tbaa !60
  %96 = zext i8 %95 to i64
  %97 = getelementptr inbounds nuw i16, ptr %89, i64 %96
  %98 = load i16, ptr %97, align 2, !tbaa !67
  %99 = zext i16 %98 to i32
  %100 = icmp sgt i32 %88, %99
  br i1 %100, label %101, label %113

101:                                              ; preds = %81
  %102 = load ptr, ptr %12, align 8, !tbaa !102
  %103 = load ptr, ptr %5, align 8, !tbaa !22
  %104 = getelementptr inbounds nuw %struct.NormalizeContext, ptr %103, i32 0, i32 6
  %105 = load i32, ptr %14, align 4, !tbaa !38
  %106 = sext i32 %105 to i64
  %107 = getelementptr inbounds [4 x i8], ptr %104, i64 0, i64 %106
  %108 = load i8, ptr %107, align 1, !tbaa !60
  %109 = zext i8 %108 to i64
  %110 = getelementptr inbounds nuw i16, ptr %102, i64 %109
  %111 = load i16, ptr %110, align 2, !tbaa !67
  %112 = zext i16 %111 to i32
  br label %121

113:                                              ; preds = %81
  %114 = load ptr, ptr %7, align 8, !tbaa !82
  %115 = load i32, ptr %14, align 4, !tbaa !38
  %116 = sext i32 %115 to i64
  %117 = getelementptr inbounds %struct.NormalizeLocal, ptr %114, i64 %116
  %118 = getelementptr inbounds nuw %struct.NormalizeLocal, ptr %117, i32 0, i32 0
  %119 = load i16, ptr %118, align 4, !tbaa !71
  %120 = zext i16 %119 to i32
  br label %121

121:                                              ; preds = %113, %101
  %122 = phi i32 [ %112, %101 ], [ %120, %113 ]
  %123 = trunc i32 %122 to i16
  %124 = load ptr, ptr %7, align 8, !tbaa !82
  %125 = load i32, ptr %14, align 4, !tbaa !38
  %126 = sext i32 %125 to i64
  %127 = getelementptr inbounds %struct.NormalizeLocal, ptr %124, i64 %126
  %128 = getelementptr inbounds nuw %struct.NormalizeLocal, ptr %127, i32 0, i32 0
  store i16 %123, ptr %128, align 4, !tbaa !71
  %129 = load ptr, ptr %8, align 8, !tbaa !82
  %130 = load i32, ptr %14, align 4, !tbaa !38
  %131 = sext i32 %130 to i64
  %132 = getelementptr inbounds %struct.NormalizeLocal, ptr %129, i64 %131
  %133 = getelementptr inbounds nuw %struct.NormalizeLocal, ptr %132, i32 0, i32 0
  %134 = load i16, ptr %133, align 4, !tbaa !71
  %135 = zext i16 %134 to i32
  %136 = load ptr, ptr %12, align 8, !tbaa !102
  %137 = load ptr, ptr %5, align 8, !tbaa !22
  %138 = getelementptr inbounds nuw %struct.NormalizeContext, ptr %137, i32 0, i32 6
  %139 = load i32, ptr %14, align 4, !tbaa !38
  %140 = sext i32 %139 to i64
  %141 = getelementptr inbounds [4 x i8], ptr %138, i64 0, i64 %140
  %142 = load i8, ptr %141, align 1, !tbaa !60
  %143 = zext i8 %142 to i64
  %144 = getelementptr inbounds nuw i16, ptr %136, i64 %143
  %145 = load i16, ptr %144, align 2, !tbaa !67
  %146 = zext i16 %145 to i32
  %147 = icmp sgt i32 %135, %146
  br i1 %147, label %148, label %156

148:                                              ; preds = %121
  %149 = load ptr, ptr %8, align 8, !tbaa !82
  %150 = load i32, ptr %14, align 4, !tbaa !38
  %151 = sext i32 %150 to i64
  %152 = getelementptr inbounds %struct.NormalizeLocal, ptr %149, i64 %151
  %153 = getelementptr inbounds nuw %struct.NormalizeLocal, ptr %152, i32 0, i32 0
  %154 = load i16, ptr %153, align 4, !tbaa !71
  %155 = zext i16 %154 to i32
  br label %168

156:                                              ; preds = %121
  %157 = load ptr, ptr %12, align 8, !tbaa !102
  %158 = load ptr, ptr %5, align 8, !tbaa !22
  %159 = getelementptr inbounds nuw %struct.NormalizeContext, ptr %158, i32 0, i32 6
  %160 = load i32, ptr %14, align 4, !tbaa !38
  %161 = sext i32 %160 to i64
  %162 = getelementptr inbounds [4 x i8], ptr %159, i64 0, i64 %161
  %163 = load i8, ptr %162, align 1, !tbaa !60
  %164 = zext i8 %163 to i64
  %165 = getelementptr inbounds nuw i16, ptr %157, i64 %164
  %166 = load i16, ptr %165, align 2, !tbaa !67
  %167 = zext i16 %166 to i32
  br label %168

168:                                              ; preds = %156, %148
  %169 = phi i32 [ %155, %148 ], [ %167, %156 ]
  %170 = trunc i32 %169 to i16
  %171 = load ptr, ptr %8, align 8, !tbaa !82
  %172 = load i32, ptr %14, align 4, !tbaa !38
  %173 = sext i32 %172 to i64
  %174 = getelementptr inbounds %struct.NormalizeLocal, ptr %171, i64 %173
  %175 = getelementptr inbounds nuw %struct.NormalizeLocal, ptr %174, i32 0, i32 0
  store i16 %170, ptr %175, align 4, !tbaa !71
  br label %176

176:                                              ; preds = %168
  %177 = load i32, ptr %14, align 4, !tbaa !38
  %178 = add nsw i32 %177, 1
  store i32 %178, ptr %14, align 4, !tbaa !38
  br label %77, !llvm.loop !106

179:                                              ; preds = %80
  %180 = load ptr, ptr %5, align 8, !tbaa !22
  %181 = getelementptr inbounds nuw %struct.NormalizeContext, ptr %180, i32 0, i32 11
  %182 = load i32, ptr %181, align 8, !tbaa !54
  %183 = load ptr, ptr %12, align 8, !tbaa !102
  %184 = sext i32 %182 to i64
  %185 = getelementptr inbounds i16, ptr %183, i64 %184
  store ptr %185, ptr %12, align 8, !tbaa !102
  br label %186

186:                                              ; preds = %179
  %187 = load i32, ptr %13, align 4, !tbaa !38
  %188 = add nsw i32 %187, 1
  store i32 %188, ptr %13, align 4, !tbaa !38
  br label %69, !llvm.loop !107

189:                                              ; preds = %75
  call void @llvm.lifetime.end.p0(i64 8, ptr %12) #6
  br label %190

190:                                              ; preds = %189
  %191 = load i32, ptr %10, align 4, !tbaa !38
  %192 = add nsw i32 %191, 1
  store i32 %192, ptr %10, align 4, !tbaa !38
  br label %49, !llvm.loop !108

193:                                              ; preds = %55
  ret void
}