; Function Attrs: nofree norecurse nosync nounwind memory(read, argmem: readwrite, inaccessiblemem: none) uwtable
define internal void @find_min_max_16(ptr noundef readonly captures(none) %0, ptr noundef readonly captures(none) %1, ptr noundef captures(none) %2, ptr noundef captures(none) %3) #5 {
  %5 = load ptr, ptr %1, align 8, !tbaa !76
  %6 = getelementptr inbounds nuw i8, ptr %0, i64 28
  br label %38

.preheader54:                                     ; preds = %38
  %7 = getelementptr inbounds nuw i8, ptr %1, i64 108
  %8 = load i32, ptr %7, align 4, !tbaa !77
  %9 = icmp sgt i32 %8, 0
  br i1 %9, label %.lr.ph, label %._crit_edge60

.lr.ph:                                           ; preds = %.preheader54
  %10 = getelementptr inbounds nuw i8, ptr %1, i64 104
  %11 = load i32, ptr %10, align 8, !tbaa !82
  %12 = icmp sgt i32 %11, 0
  br i1 %12, label %.lr.ph.split.us, label %._crit_edge60

.lr.ph.split.us:                                  ; preds = %.lr.ph
  %13 = getelementptr inbounds nuw i8, ptr %1, i64 64
  %14 = load i32, ptr %13, align 8, !tbaa !57
  %15 = getelementptr inbounds nuw i8, ptr %0, i64 72
  %16 = load i32, ptr %15, align 8, !tbaa !70
  %17 = sext i32 %16 to i64
  %18 = sext i32 %14 to i64
  %wide.trip.count = zext nneg i32 %8 to i64
  br label %.preheader.lr.ph.us

.preheader.lr.ph.us:                              ; preds = %._crit_edge.us, %.lr.ph.split.us
  %indvars.iv68 = phi i64 [ %indvars.iv.next69, %._crit_edge.us ], [ 0, %.lr.ph.split.us ]
  %19 = mul nsw i64 %indvars.iv68, %18
  %20 = getelementptr inbounds i8, ptr %5, i64 %19
  br label %.preheader.us

21:                                               ; preds = %24
  %22 = getelementptr inbounds i16, ptr %.04657.us, i64 %17
  %23 = add nuw nsw i32 %.04558.us, 1
  %exitcond67.not = icmp eq i32 %23, %11
  br i1 %exitcond67.not, label %._crit_edge.us, label %.preheader.us, !llvm.loop !97

24:                                               ; preds = %.preheader.us, %24
  %indvars.iv63 = phi i64 [ 0, %.preheader.us ], [ %indvars.iv.next64, %24 ]
  %25 = getelementptr inbounds nuw %struct.NormalizeLocal, ptr %2, i64 %indvars.iv63
  %26 = load i16, ptr %25, align 4, !tbaa !51
  %27 = getelementptr inbounds nuw [4 x i8], ptr %6, i64 0, i64 %indvars.iv63
  %28 = load i8, ptr %27, align 1, !tbaa !73
  %29 = zext i8 %28 to i64
  %30 = getelementptr inbounds nuw i16, ptr %.04657.us, i64 %29
  %31 = load i16, ptr %30, align 2, !tbaa !46
  %..us = tail call i16 @llvm.umin.i16(i16 %26, i16 %31)
  store i16 %..us, ptr %25, align 4, !tbaa !51
  %32 = getelementptr inbounds nuw %struct.NormalizeLocal, ptr %3, i64 %indvars.iv63
  %33 = load i16, ptr %32, align 4, !tbaa !51
  %34 = load i8, ptr %27, align 1, !tbaa !73
  %35 = zext i8 %34 to i64
  %36 = getelementptr inbounds nuw i16, ptr %.04657.us, i64 %35
  %37 = load i16, ptr %36, align 2, !tbaa !46
  %.in53.us = tail call i16 @llvm.umax.i16(i16 %33, i16 %37)
  store i16 %.in53.us, ptr %32, align 4, !tbaa !51
  %indvars.iv.next64 = add nuw nsw i64 %indvars.iv63, 1
  %exitcond66.not = icmp eq i64 %indvars.iv.next64, 3
  br i1 %exitcond66.not, label %21, label %24, !llvm.loop !98

.preheader.us:                                    ; preds = %.preheader.lr.ph.us, %21
  %.04558.us = phi i32 [ 0, %.preheader.lr.ph.us ], [ %23, %21 ]
  %.04657.us = phi ptr [ %20, %.preheader.lr.ph.us ], [ %22, %21 ]
  br label %24

._crit_edge.us:                                   ; preds = %21
  %indvars.iv.next69 = add nuw nsw i64 %indvars.iv68, 1
  %exitcond71.not = icmp eq i64 %indvars.iv.next69, %wide.trip.count
  br i1 %exitcond71.not, label %._crit_edge60, label %.preheader.lr.ph.us, !llvm.loop !99

38:                                               ; preds = %4, %38
  %indvars.iv = phi i64 [ 0, %4 ], [ %indvars.iv.next, %38 ]
  %39 = getelementptr inbounds nuw [4 x i8], ptr %6, i64 0, i64 %indvars.iv
  %40 = load i8, ptr %39, align 1, !tbaa !73
  %41 = zext i8 %40 to i64
  %42 = shl nuw nsw i64 %41, 1
  %43 = getelementptr inbounds nuw i8, ptr %5, i64 %42
  %44 = load i16, ptr %43, align 1, !tbaa !73
  %45 = getelementptr inbounds nuw %struct.NormalizeLocal, ptr %3, i64 %indvars.iv
  store i16 %44, ptr %45, align 4, !tbaa !51
  %46 = getelementptr inbounds nuw %struct.NormalizeLocal, ptr %2, i64 %indvars.iv
  store i16 %44, ptr %46, align 4, !tbaa !51
  %indvars.iv.next = add nuw nsw i64 %indvars.iv, 1
  %exitcond.not = icmp eq i64 %indvars.iv.next, 3
  br i1 %exitcond.not, label %.preheader54, label %38, !llvm.loop !100

._crit_edge60:                                    ; preds = %._crit_edge.us, %.lr.ph, %.preheader54
  ret void
}